(lp0
V536183960695365633
p1
aV536962239170109440
p2
aV535058691951980546
p3
aV535084340448071680
p4
aV532566998426062848
p5
aV535165071572627456
p6
aV536455476322369537
p7
aV532430746598649856
p8
aV526520569676955649
p9
aV526520573984530432
p10
aV526520598915473408
p11
aV526520632390193152
p12
aV526520615965319168
p13
aV526520641160491008
p14
aV526520595304177665
p15
aV526520620285444096
p16
aV526520632067256321
p17
aV526520670080225280
p18
a.